target datalayout = "e-m:e-p270:32:32-p271:32:32-p272:64:64-i64:64-i128:128-f80:128-n8:16:32:64-S128"
target triple = "x86_64-pc-linux-gnu"

%struct.cgroup_conf_t = type { ptr, ptr, i8, i8, float, float, i64, i8, float, float, i64, i8, ptr, i8, i8, i8, i8, i64 }

@slurm_cgroup_conf = external global %struct.cgroup_conf_t, align 8
@.str.110 = private unnamed_addr constant [2 x i8] c"/\00", align 1
@.str.119 = private unnamed_addr constant [16 x i8] c"/proc/%s/cgroup\00", align 1
@.str.120 = private unnamed_addr constant [41 x i8] c"cannot read /proc/%s/cgroup contents: %m\00", align 1
@.str.121 = private unnamed_addr constant [54 x i8] c"Hybrid mode is not supported. Mounted cgroups are: %s\00", align 1
@.str.122 = private unnamed_addr constant [52 x i8] c"Unexpected format found in /proc/%s/cgroup file: %s\00", align 1
@.str.123 = private unnamed_addr constant [147 x i8] c"mismatch found in /proc/%s/mountinfo: \22%s\22 vs /proc/%s/cgroup: \22%s\22. Please check that procfs and cgroupfs are correctly mounted in the namespace.\00", align 1

; Function Attrs: nounwind uwtable
define internal ptr @_get_proc_cg_path(ptr noundef %0) #0 {
  %2 = alloca ptr, align 8
  %3 = alloca ptr, align 8
  %4 = alloca ptr, align 8
  %5 = alloca ptr, align 8
  %6 = alloca ptr, align 8
  %7 = alloca ptr, align 8
  %8 = alloca ptr, align 8
  %9 = alloca i64, align 8
  store ptr %0, ptr %2, align 8
  call void @llvm.lifetime.start.p0(i64 8, ptr %3) #10
  call void @llvm.lifetime.start.p0(i64 8, ptr %4) #10
  store ptr null, ptr %4, align 8
  call void @llvm.lifetime.start.p0(i64 8, ptr %5) #10
  call void @llvm.lifetime.start.p0(i64 8, ptr %6) #10
  store ptr null, ptr %6, align 8
  call void @llvm.lifetime.start.p0(i64 8, ptr %7) #10
  store ptr null, ptr %7, align 8
  call void @llvm.lifetime.start.p0(i64 8, ptr %8) #10
  store ptr null, ptr %8, align 8
  call void @llvm.lifetime.start.p0(i64 8, ptr %9) #10
  %10 = load ptr, ptr %2, align 8
  %11 = call ptr (ptr, ...) @xstrdup_printf(ptr noundef @.str.119, ptr noundef %10)
  store ptr %11, ptr %7, align 8
  %12 = load ptr, ptr %7, align 8
  %13 = call i32 @common_file_read_content(ptr noundef %12, ptr noundef %3, ptr noundef %9)
  %14 = icmp ne i32 %13, 0
  br i1 %14, label %15, label %17

15:                                               ; preds = %1
  call void @slurm_xfree(ptr noundef %7)
  %16 = load ptr, ptr %2, align 8
  call void (ptr, ...) @fatal(ptr noundef @.str.120, ptr noundef %16) #11
  unreachable

17:                                               ; preds = %1
  call void @slurm_xfree(ptr noundef %7)
  %18 = load ptr, ptr %3, align 8
  %19 = icmp ne ptr %18, null
  br i1 %19, label %20, label %28

20:                                               ; preds = %17
  %21 = load ptr, ptr %3, align 8
  %22 = getelementptr inbounds i8, ptr %21, i64 0
  %23 = load i8, ptr %22, align 1
  %24 = sext i8 %23 to i32
  %25 = icmp ne i32 %24, 48
  br i1 %25, label %26, label %28

26:                                               ; preds = %20
  %27 = load ptr, ptr %3, align 8
  call void (ptr, ...) @fatal(ptr noundef @.str.121, ptr noundef %27) #11
  unreachable

28:                                               ; preds = %20, %17
  %29 = load ptr, ptr %3, align 8
  %30 = call ptr @xstrchr(ptr noundef %29, i32 noundef 58)
  store ptr %30, ptr %5, align 8
  %31 = icmp ne ptr %30, null
  br i1 %31, label %32, label %50

32:                                               ; preds = %28
  %33 = load ptr, ptr %5, align 8
  %34 = getelementptr inbounds i8, ptr %33, i64 2
  %35 = load ptr, ptr %3, align 8
  %36 = load i64, ptr %9, align 8
  %37 = getelementptr inbounds nuw i8, ptr %35, i64 %36
  %38 = getelementptr inbounds i8, ptr %37, i64 -1
  %39 = icmp ult ptr %34, %38
  br i1 %39, label %40, label %43

40:                                               ; preds = %32
  %41 = load ptr, ptr %5, align 8
  %42 = getelementptr inbounds i8, ptr %41, i64 2
  store ptr %42, ptr %4, align 8
  br label %43

43:                                               ; preds = %40, %32
  %44 = load ptr, ptr %4, align 8
  %45 = call ptr @xstrchr(ptr noundef %44, i32 noundef 10)
  store ptr %45, ptr %5, align 8
  %46 = icmp ne ptr %45, null
  br i1 %46, label %47, label %49

47:                                               ; preds = %43
  %48 = load ptr, ptr %5, align 8
  store i8 0, ptr %48, align 1
  br label %49

49:                                               ; preds = %47, %43
  br label %50

50:                                               ; preds = %49, %28
  %51 = load ptr, ptr %4, align 8
  %52 = icmp ne ptr %51, null
  br i1 %52, label %53, label %58

53:                                               ; preds = %50
  %54 = load ptr, ptr %4, align 8
  %55 = load i8, ptr %54, align 1
  %56 = sext i8 %55 to i32
  %57 = icmp eq i32 %56, 0
  br i1 %57, label %58, label %61

58:                                               ; preds = %53, %50
  %59 = load ptr, ptr %2, align 8
  %60 = load ptr, ptr %3, align 8
  call void (ptr, ...) @fatal(ptr noundef @.str.122, ptr noundef %59, ptr noundef %60) #11
  unreachable

61:                                               ; preds = %53
  %62 = load ptr, ptr @slurm_cgroup_conf, align 8
  %63 = call ptr @xstrdup(ptr noundef %62)
  store ptr %63, ptr %6, align 8
  %64 = load ptr, ptr %4, align 8
  %65 = call i32 @xstrcmp(ptr noundef %64, ptr noundef @.str.110)
  %66 = icmp ne i32 %65, 0
  br i1 %66, label %67, label %92

67:                                               ; preds = %61
  %68 = load ptr, ptr @slurm_cgroup_conf, align 8
  %69 = load ptr, ptr %2, align 8
  %70 = call ptr @_get_root_mount_mountinfo(ptr noundef %68, ptr noundef %69)
  store ptr %70, ptr %8, align 8
  %71 = load ptr, ptr %8, align 8
  %72 = call i32 @xstrcmp(ptr noundef %71, ptr noundef @.str.110)
  %73 = icmp ne i32 %72, 0
  br i1 %73, label %74, label %90

74:                                               ; preds = %67
  %75 = load ptr, ptr %4, align 8
  %76 = load ptr, ptr %8, align 8
  %77 = call ptr @xstrstr(ptr noundef %75, ptr noundef %76)
  %78 = icmp ne ptr %77, null
  br i1 %78, label %79, label %84

79:                                               ; preds = %74
  %80 = load ptr, ptr %4, align 8
  %81 = load ptr, ptr %8, align 8
  %82 = call i64 @strlen(ptr noundef %81) #12
  %83 = getelementptr inbounds nuw i8, ptr %80, i64 %82
  store ptr %83, ptr %4, align 8
  br label %89

84:                                               ; preds = %74
  %85 = load ptr, ptr %2, align 8
  %86 = load ptr, ptr %8, align 8
  %87 = load ptr, ptr %2, align 8
  %88 = load ptr, ptr %4, align 8
  call void (ptr, ...) @fatal(ptr noundef @.str.123, ptr noundef %85, ptr noundef %86, ptr noundef %87, ptr noundef %88) #11
  unreachable

89:                                               ; preds = %79
  br label %90

90:                                               ; preds = %89, %67
  %91 = load ptr, ptr %4, align 8
  call void @_xstrcat(ptr noundef %6, ptr noundef %91)
  call void @slurm_xfree(ptr noundef %8)
  br label %92

92:                                               ; preds = %90, %61
  call void @slurm_xfree(ptr noundef %3)
  %93 = load ptr, ptr %6, align 8
  call void @llvm.lifetime.end.p0(i64 8, ptr %9) #10
  call void @llvm.lifetime.end.p0(i64 8, ptr %8) #10
  call void @llvm.lifetime.end.p0(i64 8, ptr %7) #10
  call void @llvm.lifetime.end.p0(i64 8, ptr %6) #10
  call void @llvm.lifetime.end.p0(i64 8, ptr %5) #10
  call void @llvm.lifetime.end.p0(i64 8, ptr %4) #10
  call void @llvm.lifetime.end.p0(i64 8, ptr %3) #10
  ret ptr %93
}