; Function Attrs: nounwind uwtable
define internal fastcc ptr @_get_proc_cg_path(ptr noundef %0) unnamed_addr #0 {
  %2 = alloca ptr, align 8
  %3 = alloca ptr, align 8
  %4 = alloca ptr, align 8
  %5 = alloca ptr, align 8
  %6 = alloca i64, align 8
  call void @llvm.lifetime.start.p0(i64 8, ptr nonnull %2) #17
  call void @llvm.lifetime.start.p0(i64 8, ptr nonnull %3) #17
  call void @llvm.lifetime.start.p0(i64 8, ptr nonnull %4) #17
  call void @llvm.lifetime.start.p0(i64 8, ptr nonnull %5) #17
  store ptr null, ptr %5, align 8
  call void @llvm.lifetime.start.p0(i64 8, ptr nonnull %6) #17
  %7 = tail call ptr (ptr, ...) @xstrdup_printf(ptr noundef nonnull @.str.119, ptr noundef %0) #17
  store ptr %7, ptr %4, align 8
  %8 = call i32 @common_file_read_content(ptr noundef %7, ptr noundef nonnull %2, ptr noundef nonnull %6) #17
  %.not = icmp eq i32 %8, 0
  call void @slurm_xfree(ptr noundef nonnull %4) #17
  br i1 %.not, label %10, label %9

9:                                                ; preds = %1
  call void (ptr, ...) @fatal(ptr noundef nonnull @.str.120, ptr noundef %0) #18
  unreachable

10:                                               ; preds = %1
  %11 = load ptr, ptr %2, align 8
  %.not21 = icmp eq ptr %11, null
  br i1 %.not21, label %15, label %12

12:                                               ; preds = %10
  %13 = load i8, ptr %11, align 1
  %.not22 = icmp eq i8 %13, 48
  br i1 %.not22, label %15, label %14

14:                                               ; preds = %12
  call void (ptr, ...) @fatal(ptr noundef nonnull @.str.121, ptr noundef nonnull %11) #18
  unreachable

15:                                               ; preds = %12, %10
  %16 = call ptr @xstrchr(ptr noundef %11, i32 noundef 58) #17
  %.not23 = icmp eq ptr %16, null
  br i1 %.not23, label %.thread, label %17

17:                                               ; preds = %15
  %18 = getelementptr inbounds nuw i8, ptr %16, i64 2
  %19 = load ptr, ptr %2, align 8
  %20 = load i64, ptr %6, align 8
  %21 = getelementptr inbounds nuw i8, ptr %19, i64 %20
  %22 = getelementptr inbounds i8, ptr %21, i64 -1
  %.not31 = icmp ult ptr %18, %22
  %spec.select = select i1 %.not31, ptr %18, ptr null
  %23 = call ptr @xstrchr(ptr noundef %spec.select, i32 noundef 10) #17
  %.not24 = icmp eq ptr %23, null
  br i1 %.not24, label %25, label %24

24:                                               ; preds = %17
  store i8 0, ptr %23, align 1
  br label %25

25:                                               ; preds = %17, %24
  br i1 %.not31, label %26, label %.thread

26:                                               ; preds = %25
  %27 = load i8, ptr %18, align 1
  %28 = icmp eq i8 %27, 0
  br i1 %28, label %.thread, label %30

.thread:                                          ; preds = %15, %26, %25
  %29 = load ptr, ptr %2, align 8
  call void (ptr, ...) @fatal(ptr noundef nonnull @.str.122, ptr noundef %0, ptr noundef %29) #18
  unreachable

30:                                               ; preds = %26
  %31 = load ptr, ptr @slurm_cgroup_conf, align 8
  %32 = call ptr @xstrdup(ptr noundef %31) #17
  store ptr %32, ptr %3, align 8
  %33 = call i32 @xstrcmp(ptr noundef nonnull %18, ptr noundef nonnull @.str.110) #17
  %.not26 = icmp eq i32 %33, 0
  br i1 %.not26, label %45, label %34

34:                                               ; preds = %30
  %35 = load ptr, ptr @slurm_cgroup_conf, align 8
  %36 = call fastcc ptr @_get_root_mount_mountinfo(ptr noundef %35, ptr noundef %0)
  store ptr %36, ptr %5, align 8
  %37 = call i32 @xstrcmp(ptr noundef %36, ptr noundef nonnull @.str.110) #17
  %.not27 = icmp eq i32 %37, 0
  br i1 %.not27, label %44, label %38

38:                                               ; preds = %34
  %39 = call ptr @xstrstr(ptr noundef nonnull %18, ptr noundef %36) #17
  %.not28 = icmp eq ptr %39, null
  br i1 %.not28, label %43, label %40

40:                                               ; preds = %38
  %41 = call i64 @strlen(ptr noundef nonnull dereferenceable(1) %36) #20
  %42 = getelementptr inbounds nuw i8, ptr %18, i64 %41
  br label %44

43:                                               ; preds = %38
  call void (ptr, ...) @fatal(ptr noundef nonnull @.str.123, ptr noundef %0, ptr noundef %36, ptr noundef %0, ptr noundef nonnull %18) #18
  unreachable

44:                                               ; preds = %40, %34
  %.2 = phi ptr [ %42, %40 ], [ %18, %34 ]
  call void @_xstrcat(ptr noundef nonnull %3, ptr noundef nonnull %.2) #17
  call void @slurm_xfree(ptr noundef nonnull %5) #17
  br label %45

45:                                               ; preds = %44, %30
  call void @slurm_xfree(ptr noundef nonnull %2) #17
  %46 = load ptr, ptr %3, align 8
  call void @llvm.lifetime.end.p0(i64 8, ptr nonnull %6) #17
  call void @llvm.lifetime.end.p0(i64 8, ptr nonnull %5) #17
  call void @llvm.lifetime.end.p0(i64 8, ptr nonnull %4) #17
  call void @llvm.lifetime.end.p0(i64 8, ptr nonnull %3) #17
  call void @llvm.lifetime.end.p0(i64 8, ptr nonnull %2) #17
  ret ptr %46
}